target datalayout = "e-m:e-p270:32:32-p271:32:32-p272:64:64-i64:64-i128:128-f80:128-n8:16:32:64-S128"
target triple = "x86_64-pc-linux-gnu"

%struct.QualCost = type { double, double }
%struct.RelOptInfo = type { i32, i32, ptr, double, i8, i8, i8, ptr, ptr, ptr, ptr, ptr, ptr, ptr, ptr, ptr, ptr, i32, i32, i32, i16, i16, ptr, ptr, ptr, ptr, ptr, ptr, ptr, ptr, i32, double, double, ptr, ptr, ptr, i32, i32, i32, i32, i8, ptr, ptr, ptr, ptr, ptr, %struct.QualCost, i32, ptr, i8, i8, ptr, ptr, ptr, ptr, i32, ptr, i8, ptr, ptr, ptr, ptr, ptr, ptr }
%struct.PlannerInfo = type { i32, ptr, ptr, i32, ptr, ptr, ptr, ptr, i32, ptr, ptr, ptr, ptr, ptr, ptr, ptr, ptr, i32, ptr, ptr, ptr, ptr, ptr, i8, ptr, ptr, ptr, ptr, ptr, i32, ptr, ptr, ptr, ptr, ptr, ptr, ptr, i32, ptr, ptr, ptr, i32, ptr, ptr, ptr, ptr, ptr, ptr, [8 x ptr], [8 x ptr], ptr, ptr, ptr, ptr, ptr, ptr, ptr, double, double, double, i32, i8, i8, i8, i8, i8, i8, i8, i32, ptr, ptr, i32, i8, i8, i32, ptr, ptr, ptr, ptr, ptr, ptr, i8, ptr }
%struct.Query = type { i32, i32, i32, i64, i8, ptr, i32, i8, i8, i8, i8, i8, i8, i8, i8, i8, i8, i8, ptr, ptr, ptr, ptr, ptr, i32, ptr, ptr, i32, ptr, ptr, ptr, ptr, ptr, i8, ptr, ptr, ptr, ptr, ptr, ptr, ptr, i32, ptr, ptr, ptr, ptr, i32, i32 }
%struct.RangeTblEntry = type { i32, ptr, ptr, i32, i32, i8, i8, i32, i32, ptr, ptr, i8, i32, i32, ptr, ptr, ptr, ptr, ptr, i8, ptr, ptr, ptr, i32, i8, ptr, ptr, ptr, ptr, double, ptr, i8, i8, ptr }
%struct.ForEachState = type { ptr, i32 }
%struct.List = type { i32, i32, i32, ptr, [0 x %union.ListCell] }
%union.ListCell = type { ptr }
%struct.cost_qual_eval_context = type { ptr, %struct.QualCost }

; Function Attrs: nounwind uwtable
define dso_local void @cost_qual_eval(ptr noundef %0, ptr noundef %1, ptr noundef %2) #0 {
  %4 = alloca ptr, align 8
  %5 = alloca ptr, align 8
  %6 = alloca ptr, align 8
  %7 = alloca %struct.cost_qual_eval_context, align 8
  %8 = alloca ptr, align 8
  %9 = alloca %struct.ForEachState, align 8
  %10 = alloca ptr, align 8
  store ptr %0, ptr %4, align 8
  store ptr %1, ptr %5, align 8
  store ptr %2, ptr %6, align 8
  call void @llvm.lifetime.start.p0(i64 24, ptr %7) #9
  call void @llvm.lifetime.start.p0(i64 8, ptr %8) #9
  %11 = load ptr, ptr %6, align 8
  %12 = getelementptr inbounds nuw %struct.cost_qual_eval_context, ptr %7, i32 0, i32 0
  store ptr %11, ptr %12, align 8
  %13 = getelementptr inbounds nuw %struct.cost_qual_eval_context, ptr %7, i32 0, i32 1
  %14 = getelementptr inbounds nuw %struct.QualCost, ptr %13, i32 0, i32 0
  store double 0.000000e+00, ptr %14, align 8
  %15 = getelementptr inbounds nuw %struct.cost_qual_eval_context, ptr %7, i32 0, i32 1
  %16 = getelementptr inbounds nuw %struct.QualCost, ptr %15, i32 0, i32 1
  store double 0.000000e+00, ptr %16, align 8
  call void @llvm.lifetime.start.p0(i64 16, ptr %9) #9
  %17 = getelementptr inbounds nuw %struct.ForEachState, ptr %9, i32 0, i32 0
  %18 = load ptr, ptr %5, align 8
  store ptr %18, ptr %17, align 8
  %19 = getelementptr inbounds nuw %struct.ForEachState, ptr %9, i32 0, i32 1
  store i32 0, ptr %19, align 8
  %20 = getelementptr i8, ptr %9, i64 12
  call void @llvm.memset.p0.i64(ptr align 4 %20, i8 0, i64 4, i1 false)
  br label %21

21:                                               ; preds = %52, %3
  %22 = getelementptr inbounds nuw %struct.ForEachState, ptr %9, i32 0, i32 0
  %23 = load ptr, ptr %22, align 8
  %24 = icmp ne ptr %23, null
  br i1 %24, label %25, label %42

25:                                               ; preds = %21
  %26 = getelementptr inbounds nuw %struct.ForEachState, ptr %9, i32 0, i32 1
  %27 = load i32, ptr %26, align 8
  %28 = getelementptr inbounds nuw %struct.ForEachState, ptr %9, i32 0, i32 0
  %29 = load ptr, ptr %28, align 8
  %30 = getelementptr inbounds nuw %struct.List, ptr %29, i32 0, i32 1
  %31 = load i32, ptr %30, align 4
  %32 = icmp slt i32 %27, %31
  br i1 %32, label %33, label %42

33:                                               ; preds = %25
  %34 = getelementptr inbounds nuw %struct.ForEachState, ptr %9, i32 0, i32 0
  %35 = load ptr, ptr %34, align 8
  %36 = getelementptr inbounds nuw %struct.List, ptr %35, i32 0, i32 3
  %37 = load ptr, ptr %36, align 8
  %38 = getelementptr inbounds nuw %struct.ForEachState, ptr %9, i32 0, i32 1
  %39 = load i32, ptr %38, align 8
  %40 = sext i32 %39 to i64
  %41 = getelementptr inbounds %union.ListCell, ptr %37, i64 %40
  store ptr %41, ptr %8, align 8
  br label %43

42:                                               ; preds = %25, %21
  store ptr null, ptr %8, align 8
  br label %43

43:                                               ; preds = %42, %33
  %44 = phi i32 [ 1, %33 ], [ 0, %42 ]
  %45 = icmp ne i32 %44, 0
  br i1 %45, label %47, label %46

46:                                               ; preds = %43
  call void @llvm.lifetime.end.p0(i64 16, ptr %9) #9
  br label %56

47:                                               ; preds = %43
  call void @llvm.lifetime.start.p0(i64 8, ptr %10) #9
  %48 = load ptr, ptr %8, align 8
  %49 = load ptr, ptr %48, align 8
  store ptr %49, ptr %10, align 8
  %50 = load ptr, ptr %10, align 8
  %51 = call zeroext i1 @cost_qual_eval_walker(ptr noundef %50, ptr noundef %7)
  call void @llvm.lifetime.end.p0(i64 8, ptr %10) #9
  br label %52

52:                                               ; preds = %47
  %53 = getelementptr inbounds nuw %struct.ForEachState, ptr %9, i32 0, i32 1
  %54 = load i32, ptr %53, align 8
  %55 = add i32 %54, 1
  store i32 %55, ptr %53, align 8
  br label %21, !llvm.loop !8

56:                                               ; preds = %46
  %57 = load ptr, ptr %4, align 8
  %58 = getelementptr inbounds nuw %struct.cost_qual_eval_context, ptr %7, i32 0, i32 1
  call void @llvm.memcpy.p0.p0.i64(ptr align 8 %57, ptr align 8 %58, i64 16, i1 false)
  call void @llvm.lifetime.end.p0(i64 8, ptr %8) #9
  call void @llvm.lifetime.end.p0(i64 24, ptr %7) #9
  ret void
}

; Function Attrs: nounwind uwtable
define dso_local double @clamp_row_est(double noundef %0) #0 {
  %2 = alloca double, align 8
  store double %0, ptr %2, align 8
  %3 = load double, ptr %2, align 8
  %4 = fcmp ogt double %3, 1.000000e+100
  br i1 %4, label %8, label %5

5:                                                ; preds = %1
  %6 = load double, ptr %2, align 8
  %7 = call i1 @llvm.is.fpclass.f64(double %6, i32 3)
  br i1 %7, label %8, label %9

8:                                                ; preds = %5, %1
  store double 1.000000e+100, ptr %2, align 8
  br label %17

9:                                                ; preds = %5
  %10 = load double, ptr %2, align 8
  %11 = fcmp ole double %10, 1.000000e+00
  br i1 %11, label %12, label %13

12:                                               ; preds = %9
  store double 1.000000e+00, ptr %2, align 8
  br label %16

13:                                               ; preds = %9
  %14 = load double, ptr %2, align 8
  %15 = call double @llvm.rint.f64(double %14)
  store double %15, ptr %2, align 8
  br label %16

16:                                               ; preds = %13, %12
  br label %17

17:                                               ; preds = %16, %8
  %18 = load double, ptr %2, align 8
  ret double %18
}

; Function Attrs: inlinehint nounwind uwtable
define internal ptr @list_nth_cell(ptr noundef %0, i32 noundef %1) #4 {
  %3 = alloca ptr, align 8
  %4 = alloca i32, align 4
  store ptr %0, ptr %3, align 8
  store i32 %1, ptr %4, align 4
  %5 = load ptr, ptr %3, align 8
  %6 = getelementptr inbounds nuw %struct.List, ptr %5, i32 0, i32 3
  %7 = load ptr, ptr %6, align 8
  %8 = load i32, ptr %4, align 4
  %9 = sext i32 %8 to i64
  %10 = getelementptr inbounds %union.ListCell, ptr %7, i64 %9
  ret ptr %10
}

; Function Attrs: nounwind uwtable
define dso_local void @set_baserel_size_estimates(ptr noundef %0, ptr noundef %1) #0 {
  %3 = alloca ptr, align 8
  %4 = alloca ptr, align 8
  %5 = alloca double, align 8
  store ptr %0, ptr %3, align 8
  store ptr %1, ptr %4, align 8
  call void @llvm.lifetime.start.p0(i64 8, ptr %5) #9
  %6 = load ptr, ptr %4, align 8
  %7 = getelementptr inbounds nuw %struct.RelOptInfo, ptr %6, i32 0, i32 31
  %8 = load double, ptr %7, align 8
  %9 = load ptr, ptr %3, align 8
  %10 = load ptr, ptr %4, align 8
  %11 = getelementptr inbounds nuw %struct.RelOptInfo, ptr %10, i32 0, i32 45
  %12 = load ptr, ptr %11, align 8
  %13 = call double @clauselist_selectivity(ptr noundef %9, ptr noundef %12, i32 noundef 0, i32 noundef 0, ptr noundef null)
  %14 = fmul double %8, %13
  store double %14, ptr %5, align 8
  %15 = load double, ptr %5, align 8
  %16 = call double @clamp_row_est(double noundef %15)
  %17 = load ptr, ptr %4, align 8
  %18 = getelementptr inbounds nuw %struct.RelOptInfo, ptr %17, i32 0, i32 3
  store double %16, ptr %18, align 8
  %19 = load ptr, ptr %4, align 8
  %20 = getelementptr inbounds nuw %struct.RelOptInfo, ptr %19, i32 0, i32 46
  %21 = load ptr, ptr %4, align 8
  %22 = getelementptr inbounds nuw %struct.RelOptInfo, ptr %21, i32 0, i32 45
  %23 = load ptr, ptr %22, align 8
  %24 = load ptr, ptr %3, align 8
  call void @cost_qual_eval(ptr noundef %20, ptr noundef %23, ptr noundef %24)
  %25 = load ptr, ptr %3, align 8
  %26 = load ptr, ptr %4, align 8
  call void @set_rel_width(ptr noundef %25, ptr noundef %26)
  call void @llvm.lifetime.end.p0(i64 8, ptr %5) #9
  ret void
}

; Function Attrs: inlinehint nounwind uwtable
define internal ptr @list_nth(ptr noundef %0, i32 noundef %1) #4 {
  %3 = alloca ptr, align 8
  %4 = alloca i32, align 4
  store ptr %0, ptr %3, align 8
  store i32 %1, ptr %4, align 4
  %5 = load ptr, ptr %3, align 8
  %6 = load i32, ptr %4, align 4
  %7 = call ptr @list_nth_cell(ptr noundef %5, i32 noundef %6)
  %8 = load ptr, ptr %7, align 8
  ret ptr %8
}

; Function Attrs: nounwind uwtable
define dso_local void @set_namedtuplestore_size_estimates(ptr noundef %0, ptr noundef %1) #0 {
  %3 = alloca ptr, align 8
  %4 = alloca ptr, align 8
  %5 = alloca ptr, align 8
  store ptr %0, ptr %3, align 8
  store ptr %1, ptr %4, align 8
  call void @llvm.lifetime.start.p0(i64 8, ptr %5) #9
  %6 = load ptr, ptr %3, align 8
  %7 = getelementptr inbounds nuw %struct.PlannerInfo, ptr %6, i32 0, i32 9
  %8 = load ptr, ptr %7, align 8
  %9 = icmp ne ptr %8, null
  br i1 %9, label %10, label %20

10:                                               ; preds = %2
  %11 = load ptr, ptr %3, align 8
  %12 = getelementptr inbounds nuw %struct.PlannerInfo, ptr %11, i32 0, i32 9
  %13 = load ptr, ptr %12, align 8
  %14 = load ptr, ptr %4, align 8
  %15 = getelementptr inbounds nuw %struct.RelOptInfo, ptr %14, i32 0, i32 17
  %16 = load i32, ptr %15, align 8
  %17 = zext i32 %16 to i64
  %18 = getelementptr inbounds nuw ptr, ptr %13, i64 %17
  %19 = load ptr, ptr %18, align 8
  br label %31

20:                                               ; preds = %2
  %21 = load ptr, ptr %3, align 8
  %22 = getelementptr inbounds nuw %struct.PlannerInfo, ptr %21, i32 0, i32 1
  %23 = load ptr, ptr %22, align 8
  %24 = getelementptr inbounds nuw %struct.Query, ptr %23, i32 0, i32 19
  %25 = load ptr, ptr %24, align 8
  %26 = load ptr, ptr %4, align 8
  %27 = getelementptr inbounds nuw %struct.RelOptInfo, ptr %26, i32 0, i32 17
  %28 = load i32, ptr %27, align 8
  %29 = sub i32 %28, 1
  %30 = call ptr @list_nth(ptr noundef %25, i32 noundef %29)
  br label %31

31:                                               ; preds = %20, %10
  %32 = phi ptr [ %19, %10 ], [ %30, %20 ]
  store ptr %32, ptr %5, align 8
  %33 = load ptr, ptr %5, align 8
  %34 = getelementptr inbounds nuw %struct.RangeTblEntry, ptr %33, i32 0, i32 29
  %35 = load double, ptr %34, align 8
  %36 = load ptr, ptr %4, align 8
  %37 = getelementptr inbounds nuw %struct.RelOptInfo, ptr %36, i32 0, i32 31
  store double %35, ptr %37, align 8
  %38 = load ptr, ptr %4, align 8
  %39 = getelementptr inbounds nuw %struct.RelOptInfo, ptr %38, i32 0, i32 31
  %40 = load double, ptr %39, align 8
  %41 = fcmp olt double %40, 0.000000e+00
  br i1 %41, label %42, label %45

42:                                               ; preds = %31
  %43 = load ptr, ptr %4, align 8
  %44 = getelementptr inbounds nuw %struct.RelOptInfo, ptr %43, i32 0, i32 31
  store double 1.000000e+03, ptr %44, align 8
  br label %45

45:                                               ; preds = %42, %31
  %46 = load ptr, ptr %3, align 8
  %47 = load ptr, ptr %4, align 8
  call void @set_baserel_size_estimates(ptr noundef %46, ptr noundef %47)
  call void @llvm.lifetime.end.p0(i64 8, ptr %5) #9
  ret void
}