; Function Attrs: nounwind uwtable
define dso_local void @set_namedtuplestore_size_estimates(ptr noundef %0, ptr noundef captures(none) initializes((16, 24), (200, 208)) %1) local_unnamed_addr #2 {
  %3 = alloca %struct.cost_qual_eval_context, align 8
  %4 = getelementptr inbounds nuw i8, ptr %0, i64 72
  %5 = load ptr, ptr %4, align 8
  %.not = icmp eq ptr %5, null
  br i1 %.not, label %11, label %6

6:                                                ; preds = %2
  %7 = getelementptr inbounds nuw i8, ptr %1, i64 112
  %8 = load i32, ptr %7, align 8
  %9 = zext i32 %8 to i64
  %10 = getelementptr inbounds nuw ptr, ptr %5, i64 %9
  br label %22

11:                                               ; preds = %2
  %12 = getelementptr inbounds nuw i8, ptr %0, i64 8
  %13 = load ptr, ptr %12, align 8
  %14 = getelementptr inbounds nuw i8, ptr %13, i64 64
  %15 = load ptr, ptr %14, align 8
  %16 = getelementptr inbounds nuw i8, ptr %1, i64 112
  %17 = load i32, ptr %16, align 8
  %18 = add i32 %17, -1
  %19 = getelementptr i8, ptr %15, i64 16
  %.val = load ptr, ptr %19, align 8
  %20 = sext i32 %18 to i64
  %21 = getelementptr inbounds %union.ListCell, ptr %.val, i64 %20
  br label %22

22:                                               ; preds = %11, %6
  %.in = phi ptr [ %10, %6 ], [ %21, %11 ]
  %23 = load ptr, ptr %.in, align 8
  %24 = getelementptr inbounds nuw i8, ptr %23, i64 192
  %25 = load double, ptr %24, align 8
  %26 = fcmp olt double %25, 0.000000e+00
  %storemerge = select i1 %26, double 1.000000e+03, double %25
  %27 = getelementptr inbounds nuw i8, ptr %1, i64 200
  store double %storemerge, ptr %27, align 8
  %28 = getelementptr inbounds nuw i8, ptr %1, i64 296
  %29 = load ptr, ptr %28, align 8
  %30 = tail call double @clauselist_selectivity(ptr noundef nonnull %0, ptr noundef %29, i32 noundef 0, i32 noundef 0, ptr noundef null) #17
  %31 = fmul double %storemerge, %30
  %32 = fcmp ogt double %31, 1.000000e+100
  %33 = fcmp uno double %31, 0.000000e+00
  %or.cond.i.i = or i1 %32, %33
  br i1 %or.cond.i.i, label %clamp_row_est.exit.i, label %34

34:                                               ; preds = %22
  %35 = fcmp ugt double %31, 1.000000e+00
  br i1 %35, label %36, label %clamp_row_est.exit.i

36:                                               ; preds = %34
  %37 = tail call double @llvm.rint.f64(double %31)
  br label %clamp_row_est.exit.i

clamp_row_est.exit.i:                             ; preds = %36, %34, %22
  %.0.i.i = phi double [ %37, %36 ], [ 1.000000e+100, %22 ], [ 1.000000e+00, %34 ]
  %38 = getelementptr inbounds nuw i8, ptr %1, i64 16
  store double %.0.i.i, ptr %38, align 8
  %39 = load ptr, ptr %28, align 8
  call void @llvm.lifetime.start.p0(i64 24, ptr nonnull %3) #17
  store ptr %0, ptr %3, align 8
  %40 = getelementptr inbounds nuw i8, ptr %3, i64 8
  %41 = getelementptr inbounds nuw i8, ptr %39, i64 4
  %.not.i.i = icmp eq ptr %39, null
  call void @llvm.memset.p0.i64(ptr noundef nonnull align 8 dereferenceable(16) %40, i8 0, i64 16, i1 false)
  br i1 %.not.i.i, label %set_baserel_size_estimates.exit, label %.lr.ph.i.i

.lr.ph.i.i:                                       ; preds = %clamp_row_est.exit.i
  %42 = getelementptr inbounds nuw i8, ptr %39, i64 16
  %43 = load i32, ptr %41, align 4
  %44 = icmp sgt i32 %43, 0
  br i1 %44, label %.lr.ph16.i.i, label %set_baserel_size_estimates.exit

.lr.ph16.i.i:                                     ; preds = %.lr.ph.i.i, %.lr.ph16.i.i
  %indvars.iv.i.i = phi i64 [ %indvars.iv.next.i.i, %.lr.ph16.i.i ], [ 0, %.lr.ph.i.i ]
  %45 = load ptr, ptr %42, align 8
  %46 = getelementptr inbounds nuw %union.ListCell, ptr %45, i64 %indvars.iv.i.i
  %47 = load ptr, ptr %46, align 8
  %48 = call zeroext i1 @cost_qual_eval_walker(ptr noundef %47, ptr noundef nonnull %3)
  %indvars.iv.next.i.i = add nuw nsw i64 %indvars.iv.i.i, 1
  %49 = load i32, ptr %41, align 4
  %50 = sext i32 %49 to i64
  %51 = icmp slt i64 %indvars.iv.next.i.i, %50
  br i1 %51, label %.lr.ph16.i.i, label %set_baserel_size_estimates.exit

set_baserel_size_estimates.exit:                  ; preds = %.lr.ph16.i.i, %clamp_row_est.exit.i, %.lr.ph.i.i
  %52 = getelementptr inbounds nuw i8, ptr %1, i64 304
  call void @llvm.memcpy.p0.p0.i64(ptr noundef nonnull align 8 dereferenceable(16) %52, ptr noundef nonnull align 8 dereferenceable(16) %40, i64 16, i1 false)
  call void @llvm.lifetime.end.p0(i64 24, ptr nonnull %3) #17
  call fastcc void @set_rel_width(ptr noundef nonnull %0, ptr noundef %1)
  ret void
}